target datalayout = "e-m:e-p270:32:32-p271:32:32-p272:64:64-i64:64-i128:128-f80:128-n8:16:32:64-S128"
target triple = "x86_64-pc-linux-gnu"

%class.Archive = type <{ %class.File, %class.CryptData, %class.ComprDataIO, i8, [7 x i8], ptr, %class.RarTime, i32, i32, i8, [7 x i8], %class.QuickOpen, i8, [3 x i8], %struct.BaseBlock, %struct.MarkHeader, [4 x i8], %struct.MainHeader, %struct.CryptHeader, [4 x i8], %struct.FileHeader, %struct.EndArcHeader, %struct.SubBlockHeader, [4 x i8], %struct.FileHeader, %struct.CommentHeader, %struct.ProtectHeader, %struct.EAHeader, %struct.StreamHeader, [4 x i8], i64, i64, i32, i8, i8, i8, i8, i8, i8, i8, i8, i8, [3 x i8], i64, i8, i8, [16 x i8], i8, i8, i32, i64, i64, i64, i8, [3 x i8], [2048 x i32], [4 x i8] }>
%class.File = type { ptr, i64, i8, i32, i8, i8, i32, i8, i8, i8, i8, i8, i64, i8, [2048 x i32], i32, ptr }
%class.CryptData = type { [4 x %"struct.CryptData::KDF3CacheItem"], i32, [4 x i8], [4 x %"struct.CryptData::KDF5CacheItem"], i32, i32, %class.Rijndael, [256 x i32], [256 x i8], [4 x i32], [3 x i8], [4 x i16], [4 x i8] }
%"struct.CryptData::KDF3CacheItem" = type { %class.SecPassword, [8 x i8], [16 x i8], [16 x i8], i8, [7 x i8] }
%class.SecPassword = type <{ %"class.std::vector", i8, [7 x i8] }>
%"class.std::vector" = type { %"struct.std::_Vector_base" }
%"struct.std::_Vector_base" = type { %"struct.std::_Vector_base<wchar_t, std::allocator<wchar_t>>::_Vector_impl" }
%"struct.std::_Vector_base<wchar_t, std::allocator<wchar_t>>::_Vector_impl" = type { %"struct.std::_Vector_base<wchar_t, std::allocator<wchar_t>>::_Vector_impl_data" }
%"struct.std::_Vector_base<wchar_t, std::allocator<wchar_t>>::_Vector_impl_data" = type { ptr, ptr, ptr }
%"struct.CryptData::KDF5CacheItem" = type { %class.SecPassword, [16 x i8], [32 x i8], i32, [32 x i8], [32 x i8], [4 x i8] }
%class.Rijndael = type { i8, i32, [16 x i8], [15 x [4 x [4 x i8]]] }
%class.ComprDataIO = type <{ i8, [7 x i8], i64, ptr, i8, [7 x i8], i64, ptr, i64, ptr, i64, i64, i8, i8, i8, i8, [4 x i8], ptr, ptr, ptr, ptr, ptr, ptr, ptr, i32, i32, i8, i8, i8, [5 x i8], i64, i64, i64, i64, i64, i64, i64, %class.DataHash, %class.DataHash, %class.DataHash, i8, i8, [6 x i8] }>
%class.DataHash = type { i32, i32, ptr }
%class.RarTime = type { i64 }
%class.QuickOpen = type <{ ptr, i8, [7 x i8], ptr, ptr, ptr, i64, %class.CryptData, i8, [7 x i8], i64, i64, i64, i64, i64, i64, %class.Array, i64, i64, i8, [7 x i8] }>
%class.Array = type { ptr, i64, i64, i64 }
%struct.BaseBlock = type { i32, i32, i32, i32, i8 }
%struct.MarkHeader = type { [8 x i8], i32 }
%struct.MainHeader = type { %struct.BaseBlock, i16, i32, i8, i8, i8, i64, i64, i64, i64, i64, %"class.std::__cxx11::basic_string", %class.RarTime }
%"class.std::__cxx11::basic_string" = type { %"struct.std::__cxx11::basic_string<wchar_t>::_Alloc_hider", i64, %union.anon }
%"struct.std::__cxx11::basic_string<wchar_t>::_Alloc_hider" = type { ptr }
%union.anon = type { i64, [8 x i8] }
%struct.CryptHeader = type { %struct.BaseBlock, i8, i32, [16 x i8], [8 x i8] }
%struct.EndArcHeader = type { %struct.BaseBlock, i32, i32, i8, i8, i8, i8 }
%struct.SubBlockHeader = type <{ %struct.BlockHeader, i16, i8, i8 }>
%struct.BlockHeader = type { %struct.BaseBlock, i32 }
%struct.FileHeader = type { %struct.BlockHeader, i8, i32, i8, %union.anon.0, [2048 x i32], %class.Array, %class.RarTime, %class.RarTime, %class.RarTime, i64, i64, i64, %struct.HashValue, i32, i8, i8, i8, i8, i32, i8, [16 x i8], [16 x i8], i8, [8 x i8], i8, [32 x i8], i32, i8, i8, i8, i8, i64, i8, i8, i8, i32, i32, [2048 x i32], i8, i8, i8, i8, [256 x i8], [256 x i8], i32, i32 }
%union.anon.0 = type { i32 }
%struct.HashValue = type { i32, %union.anon.1 }
%union.anon.1 = type { i32, [28 x i8] }
%struct.CommentHeader = type <{ %struct.BaseBlock, i16, i8, i8, i16, [2 x i8] }>
%struct.ProtectHeader = type { %struct.BlockHeader, i8, i16, i32, [8 x i8] }
%struct.EAHeader = type { %struct.SubBlockHeader.base, i32, i8, i8, i32 }
%struct.SubBlockHeader.base = type <{ %struct.BlockHeader, i16, i8 }>
%struct.StreamHeader = type <{ %struct.SubBlockHeader.base, i8, i32, i8, i8, [2 x i8], i32, i16, [260 x i8], [2 x i8] }>

@_ZZN7Archive17ConvertAttributesEvE4mask = internal global i32 -1, align 4

; Function Attrs: mustprogress nounwind uwtable
define void @_ZN7Archive17ConvertAttributesEv(ptr noundef nonnull align 8 dereferenceable(57108) %0) #1 align 2 {
  %2 = alloca ptr, align 8
  store ptr %0, ptr %2, align 8
  %3 = load ptr, ptr %2, align 8
  %4 = load i32, ptr @_ZZN7Archive17ConvertAttributesEvE4mask, align 4
  %5 = icmp eq i32 %4, -1
  br i1 %5, label %6, label %10

6:                                                ; preds = %1
  %7 = call i32 @umask(i32 noundef 18) #12
  store i32 %7, ptr @_ZZN7Archive17ConvertAttributesEvE4mask, align 4
  %8 = load i32, ptr @_ZZN7Archive17ConvertAttributesEvE4mask, align 4
  %9 = call i32 @umask(i32 noundef %8) #12
  br label %10

10:                                               ; preds = %6, %1
  %11 = getelementptr inbounds %class.Archive, ptr %3, i32 0, i32 20
  %12 = getelementptr inbounds %struct.FileHeader, ptr %11, i32 0, i32 36
  %13 = load i32, ptr %12, align 4
  switch i32 %13, label %47 [
    i32 0, label %14
    i32 1, label %46
  ]

14:                                               ; preds = %10
  %15 = getelementptr inbounds %class.Archive, ptr %3, i32 0, i32 20
  %16 = getelementptr inbounds %struct.FileHeader, ptr %15, i32 0, i32 4
  %17 = load i32, ptr %16, align 4
  %18 = and i32 %17, 16
  %19 = icmp ne i32 %18, 0
  br i1 %19, label %20, label %26

20:                                               ; preds = %14
  %21 = load i32, ptr @_ZZN7Archive17ConvertAttributesEvE4mask, align 4
  %22 = xor i32 %21, -1
  %23 = and i32 511, %22
  %24 = getelementptr inbounds %class.Archive, ptr %3, i32 0, i32 20
  %25 = getelementptr inbounds %struct.FileHeader, ptr %24, i32 0, i32 4
  store i32 %23, ptr %25, align 4
  br label %45

26:                                               ; preds = %14
  %27 = getelementptr inbounds %class.Archive, ptr %3, i32 0, i32 20
  %28 = getelementptr inbounds %struct.FileHeader, ptr %27, i32 0, i32 4
  %29 = load i32, ptr %28, align 4
  %30 = and i32 %29, 1
  %31 = icmp ne i32 %30, 0
  br i1 %31, label %32, label %38

32:                                               ; preds = %26
  %33 = load i32, ptr @_ZZN7Archive17ConvertAttributesEvE4mask, align 4
  %34 = xor i32 %33, -1
  %35 = and i32 292, %34
  %36 = getelementptr inbounds %class.Archive, ptr %3, i32 0, i32 20
  %37 = getelementptr inbounds %struct.FileHeader, ptr %36, i32 0, i32 4
  store i32 %35, ptr %37, align 4
  br label %44

38:                                               ; preds = %26
  %39 = load i32, ptr @_ZZN7Archive17ConvertAttributesEvE4mask, align 4
  %40 = xor i32 %39, -1
  %41 = and i32 438, %40
  %42 = getelementptr inbounds %class.Archive, ptr %3, i32 0, i32 20
  %43 = getelementptr inbounds %struct.FileHeader, ptr %42, i32 0, i32 4
  store i32 %41, ptr %43, align 4
  br label %44

44:                                               ; preds = %38, %32
  br label %45

45:                                               ; preds = %44, %20
  br label %65

46:                                               ; preds = %10
  br label %65

47:                                               ; preds = %10
  %48 = getelementptr inbounds %class.Archive, ptr %3, i32 0, i32 20
  %49 = getelementptr inbounds %struct.FileHeader, ptr %48, i32 0, i32 29
  %50 = load i8, ptr %49, align 1
  %51 = trunc i8 %50 to i1
  br i1 %51, label %52, label %58

52:                                               ; preds = %47
  %53 = load i32, ptr @_ZZN7Archive17ConvertAttributesEvE4mask, align 4
  %54 = xor i32 %53, -1
  %55 = and i32 16895, %54
  %56 = getelementptr inbounds %class.Archive, ptr %3, i32 0, i32 20
  %57 = getelementptr inbounds %struct.FileHeader, ptr %56, i32 0, i32 4
  store i32 %55, ptr %57, align 4
  br label %64

58:                                               ; preds = %47
  %59 = load i32, ptr @_ZZN7Archive17ConvertAttributesEvE4mask, align 4
  %60 = xor i32 %59, -1
  %61 = and i32 33206, %60
  %62 = getelementptr inbounds %class.Archive, ptr %3, i32 0, i32 20
  %63 = getelementptr inbounds %struct.FileHeader, ptr %62, i32 0, i32 4
  store i32 %61, ptr %63, align 4
  br label %64

64:                                               ; preds = %58, %52
  br label %65

65:                                               ; preds = %64, %46, %45
  ret void
}