; Function Attrs: mustprogress nounwind uwtable
define void @_ZN7Archive17ConvertAttributesEv(ptr nocapture noundef nonnull align 8 dereferenceable(57108) %0) local_unnamed_addr #5 align 2 {
  %2 = load i32, ptr @_ZZN7Archive17ConvertAttributesEvE4mask, align 4
  %3 = icmp eq i32 %2, -1
  br i1 %3, label %4, label %7

4:                                                ; preds = %1
  %5 = tail call i32 @umask(i32 noundef 18) #19
  store i32 %5, ptr @_ZZN7Archive17ConvertAttributesEvE4mask, align 4
  %6 = tail call i32 @umask(i32 noundef %5) #19
  br label %7

7:                                                ; preds = %4, %1
  %8 = getelementptr inbounds i8, ptr %0, i64 22436
  %9 = load i32, ptr %8, align 4
  switch i32 %9, label %27 [
    i32 0, label %10
    i32 1, label %39
  ]

10:                                               ; preds = %7
  %11 = getelementptr inbounds i8, ptr %0, i64 14012
  %12 = load i32, ptr %11, align 4
  %13 = and i32 %12, 16
  %.not = icmp eq i32 %13, 0
  br i1 %.not, label %18, label %14

14:                                               ; preds = %10
  %15 = load i32, ptr @_ZZN7Archive17ConvertAttributesEvE4mask, align 4
  %16 = and i32 %15, 511
  %17 = xor i32 %16, 511
  store i32 %17, ptr %11, align 4
  br label %39

18:                                               ; preds = %10
  %19 = and i32 %12, 1
  %.not1 = icmp eq i32 %19, 0
  %20 = load i32, ptr @_ZZN7Archive17ConvertAttributesEvE4mask, align 4
  br i1 %.not1, label %24, label %21

21:                                               ; preds = %18
  %22 = and i32 %20, 292
  %23 = xor i32 %22, 292
  store i32 %23, ptr %11, align 4
  br label %39

24:                                               ; preds = %18
  %25 = and i32 %20, 438
  %26 = xor i32 %25, 438
  store i32 %26, ptr %11, align 4
  br label %39

27:                                               ; preds = %7
  %28 = getelementptr inbounds i8, ptr %0, i64 22417
  %29 = load i8, ptr %28, align 1
  %30 = trunc i8 %29 to i1
  %31 = load i32, ptr @_ZZN7Archive17ConvertAttributesEvE4mask, align 4
  %32 = getelementptr inbounds i8, ptr %0, i64 14012
  br i1 %30, label %33, label %36

33:                                               ; preds = %27
  %34 = and i32 %31, 16895
  %35 = xor i32 %34, 16895
  store i32 %35, ptr %32, align 4
  br label %39

36:                                               ; preds = %27
  %37 = and i32 %31, 33206
  %38 = xor i32 %37, 33206
  store i32 %38, ptr %32, align 4
  br label %39

39:                                               ; preds = %33, %36, %7, %14, %24, %21
  ret void
}